target datalayout = "e-m:e-p270:32:32-p271:32:32-p272:64:64-i64:64-i128:128-f80:128-n8:16:32:64-S128"
target triple = "x86_64-pc-linux-gnu"

%struct.UBiDiTransform = type { ptr, ptr, ptr, ptr, i32, i32, i32, ptr, i32, i32, i32 }

; Function Attrs: mustprogress uwtable
define internal void @_ZL9updateSrcP14UBiDiTransformPKDsjjP10UErrorCode(ptr noundef %0, ptr noundef %1, i32 noundef %2, i32 noundef %3, ptr noundef %4) #0 {
  %6 = alloca ptr, align 8
  %7 = alloca ptr, align 8
  %8 = alloca i32, align 4
  %9 = alloca i32, align 4
  %10 = alloca ptr, align 8
  store ptr %0, ptr %6, align 8, !tbaa !7
  store ptr %1, ptr %7, align 8, !tbaa !18
  store i32 %2, ptr %8, align 4, !tbaa !19
  store i32 %3, ptr %9, align 4, !tbaa !19
  store ptr %4, ptr %10, align 8, !tbaa !3
  %11 = load i32, ptr %9, align 4, !tbaa !19
  %12 = load i32, ptr %8, align 4, !tbaa !19
  %13 = icmp ult i32 %11, %12
  br i1 %13, label %14, label %16

14:                                               ; preds = %5
  %15 = load ptr, ptr %10, align 8, !tbaa !3
  store i32 15, ptr %15, align 4, !tbaa !9
  br label %70

16:                                               ; preds = %5
  %17 = load i32, ptr %9, align 4, !tbaa !19
  %18 = load ptr, ptr %6, align 8, !tbaa !7
  %19 = getelementptr inbounds nuw %struct.UBiDiTransform, ptr %18, i32 0, i32 5
  %20 = load i32, ptr %19, align 4, !tbaa !45
  %21 = icmp ugt i32 %17, %20
  br i1 %21, label %22, label %52

22:                                               ; preds = %16
  %23 = load i32, ptr %9, align 4, !tbaa !19
  %24 = add i32 %23, 50
  store i32 %24, ptr %9, align 4, !tbaa !19
  %25 = load ptr, ptr %6, align 8, !tbaa !7
  %26 = getelementptr inbounds nuw %struct.UBiDiTransform, ptr %25, i32 0, i32 2
  %27 = load ptr, ptr %26, align 8, !tbaa !17
  %28 = icmp ne ptr %27, null
  br i1 %28, label %29, label %35

29:                                               ; preds = %22
  %30 = load ptr, ptr %6, align 8, !tbaa !7
  %31 = getelementptr inbounds nuw %struct.UBiDiTransform, ptr %30, i32 0, i32 2
  %32 = load ptr, ptr %31, align 8, !tbaa !17
  call void @uprv_free_77(ptr noundef %32)
  %33 = load ptr, ptr %6, align 8, !tbaa !7
  %34 = getelementptr inbounds nuw %struct.UBiDiTransform, ptr %33, i32 0, i32 2
  store ptr null, ptr %34, align 8, !tbaa !17
  br label %35

35:                                               ; preds = %29, %22
  %36 = load i32, ptr %9, align 4, !tbaa !19
  %37 = zext i32 %36 to i64
  %38 = mul i64 %37, 2
  %39 = call noalias ptr @uprv_malloc_77(i64 noundef %38) #9
  %40 = load ptr, ptr %6, align 8, !tbaa !7
  %41 = getelementptr inbounds nuw %struct.UBiDiTransform, ptr %40, i32 0, i32 2
  store ptr %39, ptr %41, align 8, !tbaa !17
  %42 = load ptr, ptr %6, align 8, !tbaa !7
  %43 = getelementptr inbounds nuw %struct.UBiDiTransform, ptr %42, i32 0, i32 2
  %44 = load ptr, ptr %43, align 8, !tbaa !17
  %45 = icmp eq ptr %44, null
  br i1 %45, label %46, label %48

46:                                               ; preds = %35
  %47 = load ptr, ptr %10, align 8, !tbaa !3
  store i32 7, ptr %47, align 4, !tbaa !9
  br label %70

48:                                               ; preds = %35
  %49 = load i32, ptr %9, align 4, !tbaa !19
  %50 = load ptr, ptr %6, align 8, !tbaa !7
  %51 = getelementptr inbounds nuw %struct.UBiDiTransform, ptr %50, i32 0, i32 5
  store i32 %49, ptr %51, align 4, !tbaa !45
  br label %52

52:                                               ; preds = %48, %16
  %53 = load ptr, ptr %6, align 8, !tbaa !7
  %54 = getelementptr inbounds nuw %struct.UBiDiTransform, ptr %53, i32 0, i32 2
  %55 = load ptr, ptr %54, align 8, !tbaa !17
  %56 = load ptr, ptr %7, align 8, !tbaa !18
  %57 = load i32, ptr %8, align 4, !tbaa !19
  %58 = call ptr @u_strncpy_77(ptr noundef %55, ptr noundef %56, i32 noundef %57)
  %59 = load ptr, ptr %6, align 8, !tbaa !7
  %60 = getelementptr inbounds nuw %struct.UBiDiTransform, ptr %59, i32 0, i32 2
  %61 = load ptr, ptr %60, align 8, !tbaa !17
  %62 = load ptr, ptr %6, align 8, !tbaa !7
  %63 = getelementptr inbounds nuw %struct.UBiDiTransform, ptr %62, i32 0, i32 5
  %64 = load i32, ptr %63, align 4, !tbaa !45
  %65 = load i32, ptr %8, align 4, !tbaa !19
  %66 = load ptr, ptr %10, align 8, !tbaa !3
  %67 = call i32 @u_terminateUChars_77(ptr noundef %61, i32 noundef %64, i32 noundef %65, ptr noundef %66)
  %68 = load ptr, ptr %6, align 8, !tbaa !7
  %69 = getelementptr inbounds nuw %struct.UBiDiTransform, ptr %68, i32 0, i32 4
  store i32 %67, ptr %69, align 8, !tbaa !36
  br label %70

70:                                               ; preds = %52, %46, %14
  ret void
}