; Function Attrs: mustprogress uwtable
define internal fastcc void @_ZL9updateSrcP14UBiDiTransformPKDsjjP10UErrorCode(ptr noundef captures(none) %0, ptr noundef %1, i32 noundef %2, i32 noundef %3, ptr noundef %4) unnamed_addr #0 {
  %6 = icmp ult i32 %3, %2
  br i1 %6, label %7, label %8

7:                                                ; preds = %5
  store i32 15, ptr %4, align 4, !tbaa !3
  br label %32

8:                                                ; preds = %5
  %9 = getelementptr inbounds nuw i8, ptr %0, i64 36
  %10 = load i32, ptr %9, align 4, !tbaa !35
  %11 = icmp ugt i32 %3, %10
  br i1 %11, label %12, label %._crit_edge

._crit_edge:                                      ; preds = %8
  %.phi.trans.insert = getelementptr inbounds nuw i8, ptr %0, i64 16
  %.pre = load ptr, ptr %.phi.trans.insert, align 8, !tbaa !14
  br label %24

12:                                               ; preds = %8
  %13 = add i32 %3, 50
  %14 = getelementptr inbounds nuw i8, ptr %0, i64 16
  %15 = load ptr, ptr %14, align 8, !tbaa !14
  %.not = icmp eq ptr %15, null
  br i1 %.not, label %17, label %16

16:                                               ; preds = %12
  tail call void @uprv_free_77(ptr noundef nonnull %15)
  store ptr null, ptr %14, align 8, !tbaa !14
  br label %17

17:                                               ; preds = %16, %12
  %18 = zext i32 %13 to i64
  %19 = shl nuw nsw i64 %18, 1
  %20 = tail call noalias ptr @uprv_malloc_77(i64 noundef %19) #8
  store ptr %20, ptr %14, align 8, !tbaa !14
  %21 = icmp eq ptr %20, null
  br i1 %21, label %22, label %23

22:                                               ; preds = %17
  store i32 7, ptr %4, align 4, !tbaa !3
  br label %32

23:                                               ; preds = %17
  store i32 %13, ptr %9, align 4, !tbaa !35
  br label %24

24:                                               ; preds = %._crit_edge, %23
  %25 = phi ptr [ %.pre, %._crit_edge ], [ %20, %23 ]
  %26 = getelementptr inbounds nuw i8, ptr %0, i64 16
  %27 = tail call ptr @u_strncpy_77(ptr noundef %25, ptr noundef %1, i32 noundef %2)
  %28 = load ptr, ptr %26, align 8, !tbaa !14
  %29 = load i32, ptr %9, align 4, !tbaa !35
  %30 = tail call i32 @u_terminateUChars_77(ptr noundef %28, i32 noundef %29, i32 noundef %2, ptr noundef %4)
  %31 = getelementptr inbounds nuw i8, ptr %0, i64 32
  store i32 %30, ptr %31, align 8, !tbaa !34
  br label %32

32:                                               ; preds = %24, %22, %7
  ret void
}